; Function Attrs: mustprogress nounwind uwtable
define hidden void @_ZN27JvmtiClassFileReconstituter25write_synthetic_attributeEv(ptr nocapture noundef nonnull align 8 dereferenceable(88) %0) local_unnamed_addr #0 align 2 {
  tail call void @_ZN27JvmtiClassFileReconstituter26write_attribute_name_indexEPKc(ptr noundef nonnull align 8 dereferenceable(88) %0, ptr noundef nonnull @.str.25)
  %2 = getelementptr inbounds i8, ptr %0, i64 72
  %3 = load ptr, ptr %2, align 8
  %4 = getelementptr inbounds i8, ptr %0, i64 64
  %5 = load ptr, ptr %4, align 8
  %6 = ptrtoint ptr %3 to i64
  %7 = ptrtoint ptr %5 to i64
  %8 = sub i64 %6, %7
  %9 = add i64 %8, 4
  %10 = getelementptr inbounds i8, ptr %0, i64 56
  %11 = load i64, ptr %10, align 8
  %.not.i.i = icmp ult i64 %9, %11
  br i1 %.not.i.i, label %_ZN27JvmtiClassFileReconstituter17writeable_addressEm.exit.i, label %12

12:                                               ; preds = %1
  %13 = shl i64 %11, 1
  %14 = add i64 %13, 5
  %15 = and i64 %14, -1024
  %16 = tail call noundef ptr @_Z25resource_reallocate_bytesPcmmN17AllocFailStrategy13AllocFailEnumE(ptr noundef %5, i64 noundef %11, i64 noundef %15, i32 noundef 0) #12
  store ptr %16, ptr %4, align 8
  store i64 %15, ptr %10, align 8
  %17 = getelementptr inbounds i8, ptr %16, i64 %8
  %.pre.i = ptrtoint ptr %17 to i64
  br label %_ZN27JvmtiClassFileReconstituter17writeable_addressEm.exit.i

_ZN27JvmtiClassFileReconstituter17writeable_addressEm.exit.i: ; preds = %12, %1
  %.pre-phi.i = phi i64 [ %6, %1 ], [ %.pre.i, %12 ]
  %18 = phi ptr [ %3, %1 ], [ %17, %12 ]
  %19 = getelementptr inbounds i8, ptr %18, i64 4
  store ptr %19, ptr %2, align 8
  %20 = and i64 %.pre-phi.i, 3
  %21 = icmp eq i64 %20, 0
  br i1 %21, label %22, label %23

22:                                               ; preds = %_ZN27JvmtiClassFileReconstituter17writeable_addressEm.exit.i
  store i32 0, ptr %18, align 4
  br label %_ZN27JvmtiClassFileReconstituter8write_u4Ej.exit

23:                                               ; preds = %_ZN27JvmtiClassFileReconstituter17writeable_addressEm.exit.i
  store i32 0, ptr %18, align 1
  br label %_ZN27JvmtiClassFileReconstituter8write_u4Ej.exit

_ZN27JvmtiClassFileReconstituter8write_u4Ej.exit: ; preds = %22, %23
  ret void
}